; ModuleID = '13/1447.c'
source_filename = "13/1447.c"
target datalayout = "e-m:e-p270:32:32-p271:32:32-p272:64:64-i64:64-f80:128-n8:16:32:64-S128"
target triple = "x86_64-pc-linux-gnu"

@.str = private unnamed_addr constant [3 x i8] c"%d\00", align 1
@.str.1 = private unnamed_addr constant [4 x i8] c"%d \00", align 1

; Function Attrs: noinline nounwind uwtable
define dso_local i32 @main() #0 {
  %1 = alloca i32, align 4
  %2 = alloca i32, align 4
  %3 = alloca i32, align 4
  %4 = alloca i32, align 4
  %5 = alloca i32, align 4
  %6 = alloca i32, align 4
  %7 = alloca [100 x i32], align 16
  %8 = alloca [100 x i32], align 16
  store i32 0, i32* %1, align 4
  store i32 1, i32* %6, align 4
  %9 = call i32 (i8*, ...) @__isoc99_scanf(i8* getelementptr inbounds ([3 x i8], [3 x i8]* @.str, i64 0, i64 0), i32* %2)
  store i32 0, i32* %3, align 4
  br label %10

10:                                               ; preds = %19, %0
  %11 = load i32, i32* %3, align 4
  %12 = load i32, i32* %2, align 4
  %13 = icmp slt i32 %11, %12
  br i1 %13, label %14, label %22

14:                                               ; preds = %10
  %15 = load i32, i32* %3, align 4
  %16 = sext i32 %15 to i64
  %17 = getelementptr inbounds [100 x i32], [100 x i32]* %7, i64 0, i64 %16
  %18 = call i32 (i8*, ...) @__isoc99_scanf(i8* getelementptr inbounds ([3 x i8], [3 x i8]* @.str, i64 0, i64 0), i32* %17)
  br label %19

19:                                               ; preds = %14
  %20 = load i32, i32* %3, align 4
  %21 = add nsw i32 %20, 1
  store i32 %21, i32* %3, align 4
  br label %10

22:                                               ; preds = %10
  %23 = getelementptr inbounds [100 x i32], [100 x i32]* %8, i64 0, i64 0
  store i32 0, i32* %23, align 16
  store i32 1, i32* %3, align 4
  br label %24

24:                                               ; preds = %53, %22
  %25 = load i32, i32* %3, align 4
  %26 = load i32, i32* %2, align 4
  %27 = icmp slt i32 %25, %26
  br i1 %27, label %28, label %56

28:                                               ; preds = %24
  store i32 0, i32* %5, align 4
  store i32 0, i32* %4, align 4
  br label %29

29:                                               ; preds = %45, %28
  %30 = load i32, i32* %4, align 4
  %31 = load i32, i32* %3, align 4
  %32 = icmp slt i32 %30, %31
  br i1 %32, label %33, label %48

33:                                               ; preds = %29
  %34 = load i32, i32* %4, align 4
  %35 = sext i32 %34 to i64
  %36 = getelementptr inbounds [100 x i32], [100 x i32]* %7, i64 0, i64 %35
  %37 = load i32, i32* %36, align 4
  %38 = load i32, i32* %3, align 4
  %39 = sext i32 %38 to i64
  %40 = getelementptr inbounds [100 x i32], [100 x i32]* %7, i64 0, i64 %39
  %41 = load i32, i32* %40, align 4
  %42 = icmp eq i32 %37, %41
  br i1 %42, label %43, label %44

43:                                               ; preds = %33
  store i32 1, i32* %5, align 4
  br label %48

44:                                               ; preds = %33
  br label %45

45:                                               ; preds = %44
  %46 = load i32, i32* %4, align 4
  %47 = add nsw i32 %46, 1
  store i32 %47, i32* %4, align 4
  br label %29

48:                                               ; preds = %43, %29
  %49 = load i32, i32* %5, align 4
  %50 = load i32, i32* %3, align 4
  %51 = sext i32 %50 to i64
  %52 = getelementptr inbounds [100 x i32], [100 x i32]* %8, i64 0, i64 %51
  store i32 %49, i32* %52, align 4
  br label %53

53:                                               ; preds = %48
  %54 = load i32, i32* %3, align 4
  %55 = add nsw i32 %54, 1
  store i32 %55, i32* %3, align 4
  br label %24

56:                                               ; preds = %24
  store i32 0, i32* %3, align 4
  store i32 0, i32* %6, align 4
  br label %57

57:                                               ; preds = %71, %56
  %58 = load i32, i32* %3, align 4
  %59 = load i32, i32* %2, align 4
  %60 = icmp slt i32 %58, %59
  br i1 %60, label %61, label %74

61:                                               ; preds = %57
  %62 = load i32, i32* %3, align 4
  %63 = sext i32 %62 to i64
  %64 = getelementptr inbounds [100 x i32], [100 x i32]* %8, i64 0, i64 %63
  %65 = load i32, i32* %64, align 4
  %66 = icmp eq i32 %65, 0
  br i1 %66, label %67, label %70

67:                                               ; preds = %61
  %68 = load i32, i32* %6, align 4
  %69 = add nsw i32 %68, 1
  store i32 %69, i32* %6, align 4
  br label %70

70:                                               ; preds = %67, %61
  br label %71

71:                                               ; preds = %70
  %72 = load i32, i32* %3, align 4
  %73 = add nsw i32 %72, 1
  store i32 %73, i32* %3, align 4
  br label %57

74:                                               ; preds = %57
  store i32 0, i32* %3, align 4
  br label %75

75:                                               ; preds = %115, %74
  %76 = load i32, i32* %3, align 4
  %77 = load i32, i32* %2, align 4
  %78 = icmp slt i32 %76, %77
  br i1 %78, label %79, label %118

79:                                               ; preds = %75
  %80 = load i32, i32* %3, align 4
  %81 = sext i32 %80 to i64
  %82 = getelementptr inbounds [100 x i32], [100 x i32]* %8, i64 0, i64 %81
  %83 = load i32, i32* %82, align 4
  %84 = icmp eq i32 %83, 0
  br i1 %84, label %85, label %96

85:                                               ; preds = %79
  %86 = load i32, i32* %6, align 4
  %87 = icmp ne i32 %86, 1
  br i1 %87, label %88, label %96

88:                                               ; preds = %85
  %89 = load i32, i32* %3, align 4
  %90 = sext i32 %89 to i64
  %91 = getelementptr inbounds [100 x i32], [100 x i32]* %7, i64 0, i64 %90
  %92 = load i32, i32* %91, align 4
  %93 = call i32 (i8*, ...) @printf(i8* getelementptr inbounds ([4 x i8], [4 x i8]* @.str.1, i64 0, i64 0), i32 %92)
  %94 = load i32, i32* %6, align 4
  %95 = add nsw i32 %94, -1
  store i32 %95, i32* %6, align 4
  br label %114

96:                                               ; preds = %85, %79
  %97 = load i32, i32* %3, align 4
  %98 = sext i32 %97 to i64
  %99 = getelementptr inbounds [100 x i32], [100 x i32]* %8, i64 0, i64 %98
  %100 = load i32, i32* %99, align 4
  %101 = icmp eq i32 %100, 0
  br i1 %101, label %102, label %113

102:                                              ; preds = %96
  %103 = load i32, i32* %6, align 4
  %104 = icmp eq i32 %103, 1
  br i1 %104, label %105, label %113

105:                                              ; preds = %102
  %106 = load i32, i32* %3, align 4
  %107 = sext i32 %106 to i64
  %108 = getelementptr inbounds [100 x i32], [100 x i32]* %7, i64 0, i64 %107
  %109 = load i32, i32* %108, align 4
  %110 = call i32 (i8*, ...) @printf(i8* getelementptr inbounds ([3 x i8], [3 x i8]* @.str, i64 0, i64 0), i32 %109)
  %111 = load i32, i32* %6, align 4
  %112 = add nsw i32 %111, -1
  store i32 %112, i32* %6, align 4
  br label %113

113:                                              ; preds = %105, %102, %96
  br label %114

114:                                              ; preds = %113, %88
  br label %115

115:                                              ; preds = %114
  %116 = load i32, i32* %3, align 4
  %117 = add nsw i32 %116, 1
  store i32 %117, i32* %3, align 4
  br label %75

118:                                              ; preds = %75
  ret i32 0
}

declare dso_local i32 @__isoc99_scanf(i8*, ...) #1

declare dso_local i32 @printf(i8*, ...) #1


!llvm.module.flags = !{!0}
!llvm.ident = !{!1}

!0 = !{i32 1, !"wchar_size", i32 4}
!1 = !{!"clang version 10.0.0-4ubuntu1 "}
